target datalayout = "e-m:e-p270:32:32-p271:32:32-p272:64:64-i64:64-i128:128-f80:128-n8:16:32:64-S128"
target triple = "x86_64-pc-linux-gnu"

%union.SourceSpan = type { i64 }
%struct.Decl_ = type { ptr, ptr, %union.SourceSpan, i64, %union.anon, i32, %union.anon.0, i64, ptr, ptr, ptr, %union.anon.1 }
%union.anon = type { ptr }
%union.anon.0 = type { i16 }
%union.anon.1 = type { %struct.FuncDecl }
%struct.FuncDecl = type { i32, [4 x i8], %struct.Signature_, i32, i32, %union.anon.8 }
%struct.Signature_ = type <{ %struct.CalleeAttributes, i16, i8, i32, i32, [4 x i8], ptr }>
%struct.CalleeAttributes = type { i8 }
%union.anon.8 = type { %struct.anon.9 }
%struct.anon.9 = type { i16, %union.anon.10 }
%union.anon.10 = type { ptr }
%struct.anon.2 = type { ptr, ptr, %union.anon.3 }
%union.anon.3 = type { %struct.BitStructDecl }
%struct.BitStructDecl = type { ptr, ptr, i8 }
%struct.TypeInfo_ = type { i16, ptr, %union.SourceSpan, %union.anon.56 }
%union.anon.56 = type { %struct.anon.57 }
%struct.anon.57 = type { ptr, ptr }
%struct.Type_ = type { i32, ptr, ptr, ptr, %union.anon.85, ptr, ptr, %union.anon.87 }
%union.anon.85 = type { ptr }
%union.anon.87 = type { %struct.TypeFunction }
%struct.TypeFunction = type { ptr, ptr, ptr }
%struct.TypeArray = type { ptr, i32 }

@.str.1 = private unnamed_addr constant [36 x i8] c"FATAL ERROR %s -> in %s @ in %s:%d \00", align 1
@.str.2 = private unnamed_addr constant [22 x i8] c"Should be unreachable\00", align 1
@__func__.sema_check_type_variable_array = private unnamed_addr constant [31 x i8] c"sema_check_type_variable_array\00", align 1
@.str.3 = private unnamed_addr constant [121 x i8] c"generated/home/dtcxzyw/WorkSpace/Projects/compilers/llvm-opt-benchmark/bench/c3c/c3c/src/compiler/sema_name_resolution.c\00", align 1
@.str.4 = private unnamed_addr constant [62 x i8] c"Arrays of structs with flexible array members is not allowed.\00", align 1
@__func__.type_flatten = private unnamed_addr constant [13 x i8] c"type_flatten\00", align 1
@.str.6 = private unnamed_addr constant [118 x i8] c"generated/home/dtcxzyw/WorkSpace/Projects/compilers/llvm-opt-benchmark/bench/c3c/c3c/src/compiler/compiler_internal.h\00", align 1
@poisoned_type = external global ptr, align 8

; Function Attrs: nounwind uwtable
define internal ptr @type_flatten(ptr noundef %0) #0 {
  %2 = alloca ptr, align 8
  store ptr %0, ptr %2, align 8
  br label %3

3:                                                ; preds = %28, %1
  %4 = load ptr, ptr %2, align 8
  %5 = getelementptr inbounds %struct.Type_, ptr %4, i32 0, i32 1
  %6 = load ptr, ptr %5, align 8
  store ptr %6, ptr %2, align 8
  %7 = load ptr, ptr %2, align 8
  %8 = getelementptr inbounds %struct.Type_, ptr %7, i32 0, i32 0
  %9 = load i32, ptr %8, align 8
  switch i32 %9, label %26 [
    i32 32, label %10
    i32 40, label %19
    i32 31, label %23
  ]

10:                                               ; preds = %3
  %11 = load ptr, ptr %2, align 8
  %12 = getelementptr inbounds %struct.Type_, ptr %11, i32 0, i32 7
  %13 = load ptr, ptr %12, align 8
  %14 = getelementptr inbounds %struct.Decl_, ptr %13, i32 0, i32 11
  %15 = getelementptr inbounds %struct.anon.2, ptr %14, i32 0, i32 2
  %16 = load ptr, ptr %15, align 8
  %17 = getelementptr inbounds %struct.TypeInfo_, ptr %16, i32 0, i32 1
  %18 = load ptr, ptr %17, align 8
  store ptr %18, ptr %2, align 8
  br label %28

19:                                               ; preds = %3
  %20 = load ptr, ptr %2, align 8
  %21 = getelementptr inbounds %struct.Type_, ptr %20, i32 0, i32 7
  %22 = load ptr, ptr %21, align 8
  store ptr %22, ptr %2, align 8
  br label %28

23:                                               ; preds = %3
  br label %24

24:                                               ; preds = %23
  call void (ptr, ...) @error_exit(ptr noundef @.str.1, ptr noundef @.str.2, ptr noundef @__func__.type_flatten, ptr noundef @.str.6, i32 noundef 2984) #6
  unreachable

25:                                               ; No predecessors!
  br label %26

26:                                               ; preds = %25, %3
  %27 = load ptr, ptr %2, align 8
  ret ptr %27

28:                                               ; preds = %19, %10
  br label %3
}

; Function Attrs: nounwind uwtable
define dso_local zeroext i1 @sema_check_type_variable_array(ptr noundef %0, ptr noundef %1) #0 {
  %3 = alloca ptr, align 8
  %4 = alloca ptr, align 8
  %5 = alloca i1, align 1
  %6 = alloca ptr, align 8
  %7 = alloca ptr, align 8
  %8 = alloca ptr, align 8
  store ptr %0, ptr %6, align 8
  store ptr %1, ptr %7, align 8
  %9 = load ptr, ptr %7, align 8
  store ptr %9, ptr %4, align 8
  %10 = load ptr, ptr %4, align 8
  %11 = icmp ne ptr %10, null
  br i1 %11, label %12, label %19

12:                                               ; preds = %2
  %13 = load ptr, ptr %4, align 8
  %14 = load i16, ptr %13, align 8
  %15 = lshr i16 %14, 3
  %16 = and i16 %15, 63
  %17 = zext i16 %16 to i32
  %18 = icmp ne i32 %17, 0
  br label %19

19:                                               ; preds = %12, %2
  %20 = phi i1 [ true, %2 ], [ %18, %12 ]
  br i1 %20, label %22, label %21

21:                                               ; preds = %19
  store i1 false, ptr %5, align 1
  br label %72

22:                                               ; preds = %19
  %23 = load ptr, ptr %7, align 8
  %24 = getelementptr inbounds %struct.TypeInfo_, ptr %23, i32 0, i32 1
  %25 = load ptr, ptr %24, align 8
  store ptr %25, ptr %8, align 8
  br label %26

26:                                               ; preds = %36, %32, %22
  %27 = load ptr, ptr %8, align 8
  %28 = call ptr @type_flatten(ptr noundef %27)
  store ptr %28, ptr %8, align 8
  %29 = load ptr, ptr %8, align 8
  %30 = getelementptr inbounds %struct.Type_, ptr %29, i32 0, i32 0
  %31 = load i32, ptr %30, align 8
  switch i32 %31, label %42 [
    i32 23, label %32
    i32 34, label %36
    i32 33, label %36
    i32 35, label %36
    i32 36, label %36
    i32 26, label %41
  ]

32:                                               ; preds = %26
  %33 = load ptr, ptr %8, align 8
  %34 = getelementptr inbounds %struct.Type_, ptr %33, i32 0, i32 7
  %35 = load ptr, ptr %34, align 8
  store ptr %35, ptr %8, align 8
  br label %26

36:                                               ; preds = %26, %26, %26, %26
  %37 = load ptr, ptr %8, align 8
  %38 = getelementptr inbounds %struct.Type_, ptr %37, i32 0, i32 7
  %39 = getelementptr inbounds %struct.TypeArray, ptr %38, i32 0, i32 0
  %40 = load ptr, ptr %39, align 8
  store ptr %40, ptr %8, align 8
  br label %26

41:                                               ; preds = %26
  br label %45

42:                                               ; preds = %26
  br label %43

43:                                               ; preds = %42
  call void (ptr, ...) @error_exit(ptr noundef @.str.1, ptr noundef @.str.2, ptr noundef @__func__.sema_check_type_variable_array, ptr noundef @.str.3, i32 noundef 657) #6
  unreachable

44:                                               ; No predecessors!
  br label %45

45:                                               ; preds = %44, %41
  br label %46

46:                                               ; preds = %45
  %47 = load ptr, ptr %8, align 8
  %48 = getelementptr inbounds %struct.Type_, ptr %47, i32 0, i32 7
  %49 = load ptr, ptr %48, align 8
  %50 = getelementptr inbounds %struct.Decl_, ptr %49, i32 0, i32 3
  %51 = load i64, ptr %50, align 8
  %52 = lshr i64 %51, 16
  %53 = and i64 %52, 1
  %54 = trunc i64 %53 to i1
  br i1 %54, label %55, label %71

55:                                               ; preds = %46
  %56 = load ptr, ptr %7, align 8
  %57 = getelementptr inbounds %struct.TypeInfo_, ptr %56, i32 0, i32 2
  %58 = getelementptr inbounds %union.SourceSpan, ptr %57, i32 0, i32 0
  %59 = load i64, ptr %58, align 8
  call void (i64, ptr, ...) @sema_error_at(i64 %59, ptr noundef @.str.4)
  %60 = load ptr, ptr %7, align 8
  store ptr %60, ptr %3, align 8
  %61 = load ptr, ptr %3, align 8
  %62 = load i16, ptr %61, align 8
  %63 = and i16 %62, -505
  store i16 %63, ptr %61, align 8
  %64 = load ptr, ptr @poisoned_type, align 8
  %65 = load ptr, ptr %3, align 8
  %66 = getelementptr inbounds %struct.TypeInfo_, ptr %65, i32 0, i32 1
  store ptr %64, ptr %66, align 8
  %67 = load ptr, ptr %3, align 8
  %68 = load i16, ptr %67, align 8
  %69 = and i16 %68, -8
  %70 = or i16 %69, 2
  store i16 %70, ptr %67, align 8
  store i1 false, ptr %5, align 1
  br label %72

71:                                               ; preds = %46
  store i1 true, ptr %5, align 1
  br label %72

72:                                               ; preds = %71, %55, %21
  %73 = load i1, ptr %5, align 1
  ret i1 %73
}