; Function Attrs: nounwind uwtable
define dso_local noundef zeroext i1 @sema_check_type_variable_array(ptr nocapture noundef readnone %0, ptr noundef %1) local_unnamed_addr #2 {
  %.not = icmp eq ptr %1, null
  br i1 %.not, label %.critedge, label %3

3:                                                ; preds = %2
  %4 = load i16, ptr %1, align 8
  %5 = and i16 %4, 504
  %.not17 = icmp eq i16 %5, 0
  br i1 %.not17, label %35, label %.critedge

.critedge:                                        ; preds = %2, %3
  %6 = getelementptr inbounds i8, ptr %1, i64 8
  br label %7

7:                                                ; preds = %.backedge33, %.critedge
  %.0.i.in = phi ptr [ %6, %.critedge ], [ %.0.i.in.be, %.backedge33 ]
  %.0.i = load ptr, ptr %.0.i.in, align 8
  %8 = getelementptr inbounds i8, ptr %.0.i, i64 8
  %9 = load ptr, ptr %8, align 8
  %10 = load i32, ptr %9, align 8
  switch i32 %10, label %20 [
    i32 32, label %11
    i32 40, label %17
    i32 31, label %19
    i32 23, label %.backedge
    i32 34, label %.backedge
    i32 33, label %.backedge
    i32 35, label %.backedge
    i32 36, label %.backedge
    i32 26, label %21
  ]

11:                                               ; preds = %7
  %12 = getelementptr inbounds i8, ptr %9, i64 56
  %13 = load ptr, ptr %12, align 8
  %14 = getelementptr inbounds i8, ptr %13, i64 96
  %15 = load ptr, ptr %14, align 8
  %16 = getelementptr inbounds i8, ptr %15, i64 8
  br label %.backedge33

17:                                               ; preds = %7
  %18 = getelementptr inbounds i8, ptr %9, i64 56
  br label %.backedge33

19:                                               ; preds = %7
  tail call void (ptr, ...) @error_exit(ptr noundef nonnull @.str.1, ptr noundef nonnull @.str.2, ptr noundef nonnull @__func__.type_flatten, ptr noundef nonnull @.str.6, i32 noundef 2984) #9
  unreachable

.backedge:                                        ; preds = %7, %7, %7, %7, %7
  %.0.in.be = getelementptr inbounds i8, ptr %9, i64 56
  br label %.backedge33

.backedge33:                                      ; preds = %.backedge, %17, %11
  %.0.i.in.be = phi ptr [ %.0.in.be, %.backedge ], [ %18, %17 ], [ %16, %11 ]
  br label %7

20:                                               ; preds = %7
  tail call void (ptr, ...) @error_exit(ptr noundef nonnull @.str.1, ptr noundef nonnull @.str.2, ptr noundef nonnull @__func__.sema_check_type_variable_array, ptr noundef nonnull @.str.3, i32 noundef 657) #9
  unreachable

21:                                               ; preds = %7
  %22 = getelementptr inbounds i8, ptr %9, i64 56
  %23 = load ptr, ptr %22, align 8
  %24 = getelementptr inbounds i8, ptr %23, i64 24
  %25 = load i64, ptr %24, align 8
  %26 = and i64 %25, 65536
  %.not18 = icmp eq i64 %26, 0
  br i1 %.not18, label %35, label %27

27:                                               ; preds = %21
  %28 = getelementptr inbounds i8, ptr %1, i64 16
  %29 = load i64, ptr %28, align 8
  tail call void (i64, ptr, ...) @sema_error_at(i64 %29, ptr noundef nonnull @.str.4) #10
  %30 = load i16, ptr %1, align 8
  %31 = and i16 %30, -505
  store i16 %31, ptr %1, align 8
  %32 = load ptr, ptr @poisoned_type, align 8
  store ptr %32, ptr %6, align 8
  %33 = and i16 %30, -512
  %34 = or disjoint i16 %33, 2
  store i16 %34, ptr %1, align 8
  br label %35

35:                                               ; preds = %21, %3, %27
  %.015 = phi i1 [ false, %27 ], [ false, %3 ], [ true, %21 ]
  ret i1 %.015
}